; Function Attrs: mustprogress nofree norecurse nosync nounwind willreturn memory(none) uwtable
define hidden noundef zeroext i1 @_ZN19OpenColorIO_v2_5dev12FloatsDifferEffib(float noundef %0, float noundef %1, i32 noundef %2, i1 noundef zeroext %3) local_unnamed_addr #4 {
  %5 = bitcast float %0 to i32
  %6 = bitcast float %1 to i32
  %7 = and i32 %5, 8388607
  %8 = and i32 %6, 8388607
  %9 = and i32 %5, 2139095040
  %10 = icmp eq i32 %9, 2139095040
  %11 = and i32 %6, 2139095040
  %12 = icmp eq i32 %11, 2139095040
  br i1 %10, label %13, label %20

13:                                               ; preds = %4
  br i1 %12, label %14, label %56

14:                                               ; preds = %13
  %15 = icmp eq i32 %7, 0
  %16 = icmp eq i32 %8, 0
  %17 = or i32 %6, %5
  %18 = and i32 %17, 8388607
  %brmerge.not = icmp eq i32 %18, 0
  %.mux = or i1 %15, %16
  %.unshifted = xor i32 %6, %5
  %19 = icmp slt i32 %.unshifted, 0
  %spec.select = select i1 %brmerge.not, i1 %19, i1 %.mux
  br label %56

20:                                               ; preds = %4
  br i1 %12, label %56, label %21

21:                                               ; preds = %20
  %22 = tail call float @llvm.fabs.f32(float %0)
  %23 = icmp slt i32 %5, 0
  br i1 %3, label %24, label %37

24:                                               ; preds = %21
  %25 = bitcast float %22 to i32
  %26 = icmp samesign ult i32 %25, 8388608
  %27 = add nuw i32 %5, 2139095041
  %28 = sub nuw i32 -2139095041, %25
  %29 = select i1 %23, i32 %28, i32 %27
  %.0.i = select i1 %26, i32 -2147483648, i32 %29
  %30 = tail call float @llvm.fabs.f32(float %1)
  %31 = bitcast float %30 to i32
  %32 = icmp samesign ult i32 %31, 8388608
  %33 = add nuw i32 %6, 2139095041
  %34 = sub nuw i32 -2139095041, %31
  %35 = icmp slt i32 %6, 0
  %36 = select i1 %35, i32 %34, i32 %33
  %.0.i26 = select i1 %32, i32 -2147483648, i32 %36
  br label %50

37:                                               ; preds = %21
  %38 = fneg float %22
  %39 = bitcast float %38 to i32
  %40 = bitcast float %22 to i32
  %41 = sub nuw i32 -2147483648, %40
  %42 = select i1 %23, i32 %41, i32 %39
  %43 = tail call float @llvm.fabs.f32(float %1)
  %44 = fneg float %43
  %45 = bitcast float %44 to i32
  %46 = bitcast float %43 to i32
  %47 = sub nuw i32 -2147483648, %46
  %48 = icmp slt i32 %6, 0
  %49 = select i1 %48, i32 %47, i32 %45
  br label %50

50:                                               ; preds = %37, %24
  %.024 = phi i32 [ %.0.i, %24 ], [ %42, %37 ]
  %.023 = phi i32 [ %.0.i26, %24 ], [ %49, %37 ]
  %51 = icmp ugt i32 %.024, %.023
  %52 = sub nuw i32 %.024, %.023
  %53 = sub nuw i32 %.023, %.024
  %54 = select i1 %51, i32 %52, i32 %53
  %55 = icmp ugt i32 %54, %2
  br label %56

56:                                               ; preds = %14, %20, %13, %50
  %.1 = phi i1 [ %55, %50 ], [ true, %13 ], [ true, %20 ], [ %spec.select, %14 ]
  ret i1 %.1
}